; Function Attrs: nounwind uwtable
define zeroext range(i8 0, 7) i8 @l_Std_Time_Weekday_ofNat(ptr noundef %0) local_unnamed_addr #1 {
  %2 = ptrtoint ptr %0 to i64
  %3 = and i64 %2, 1
  %.not = icmp eq i64 %3, 0
  br i1 %.not, label %lean_nat_le.exit, label %4, !prof !15

4:                                                ; preds = %1
  %.not50 = icmp ult ptr %0, inttoptr (i64 7 to ptr)
  br i1 %.not50, label %6, label %11

lean_nat_le.exit:                                 ; preds = %1
  %5 = tail call zeroext i1 @lean_nat_big_le(ptr noundef nonnull inttoptr (i64 7 to ptr), ptr noundef %0) #7
  br i1 %5, label %lean_nat_le.exit32, label %lean_nat_le.exit29

6:                                                ; preds = %4
  %.not51 = icmp ult ptr %0, inttoptr (i64 3 to ptr)
  br i1 %.not51, label %19, label %8

lean_nat_le.exit29:                               ; preds = %lean_nat_le.exit
  %7 = tail call zeroext i1 @lean_nat_big_le(ptr noundef nonnull inttoptr (i64 3 to ptr), ptr noundef %0) #7
  br i1 %7, label %.critedge.i33, label %19

8:                                                ; preds = %6
  %9 = icmp eq ptr %0, inttoptr (i64 3 to ptr)
  br label %lean_nat_eq.exit

.critedge.i33:                                    ; preds = %lean_nat_le.exit29
  %10 = tail call zeroext i1 @lean_nat_big_eq(ptr noundef %0, ptr noundef nonnull inttoptr (i64 3 to ptr)) #7
  br label %lean_nat_eq.exit

lean_nat_eq.exit:                                 ; preds = %8, %.critedge.i33
  %.0.i34 = phi i1 [ %9, %8 ], [ %10, %.critedge.i33 ]
  %. = select i1 %.0.i34, i8 1, i8 2
  br label %19

11:                                               ; preds = %4
  %.not52 = icmp ult ptr %0, inttoptr (i64 11 to ptr)
  br i1 %.not52, label %13, label %16

lean_nat_le.exit32:                               ; preds = %lean_nat_le.exit
  %12 = tail call zeroext i1 @lean_nat_big_le(ptr noundef nonnull inttoptr (i64 11 to ptr), ptr noundef %0) #7
  br i1 %12, label %.critedge.i38, label %.critedge.i35

13:                                               ; preds = %11
  %14 = icmp eq ptr %0, inttoptr (i64 7 to ptr)
  br label %lean_nat_eq.exit37

.critedge.i35:                                    ; preds = %lean_nat_le.exit32
  %15 = tail call zeroext i1 @lean_nat_big_eq(ptr noundef %0, ptr noundef nonnull inttoptr (i64 7 to ptr)) #7
  br label %lean_nat_eq.exit37

lean_nat_eq.exit37:                               ; preds = %13, %.critedge.i35
  %.0.i36 = phi i1 [ %14, %13 ], [ %15, %.critedge.i35 ]
  %.25 = select i1 %.0.i36, i8 3, i8 4
  br label %19

16:                                               ; preds = %11
  %17 = icmp eq ptr %0, inttoptr (i64 11 to ptr)
  br label %lean_nat_eq.exit40

.critedge.i38:                                    ; preds = %lean_nat_le.exit32
  %18 = tail call zeroext i1 @lean_nat_big_eq(ptr noundef %0, ptr noundef nonnull inttoptr (i64 11 to ptr)) #7
  br label %lean_nat_eq.exit40

lean_nat_eq.exit40:                               ; preds = %16, %.critedge.i38
  %.0.i39 = phi i1 [ %17, %16 ], [ %18, %.critedge.i38 ]
  %.26 = select i1 %.0.i39, i8 5, i8 6
  br label %19

19:                                               ; preds = %6, %lean_nat_eq.exit37, %lean_nat_eq.exit40, %lean_nat_eq.exit, %lean_nat_le.exit29
  %.2 = phi i8 [ %., %lean_nat_eq.exit ], [ 0, %lean_nat_le.exit29 ], [ %.25, %lean_nat_eq.exit37 ], [ %.26, %lean_nat_eq.exit40 ], [ 0, %6 ]
  ret i8 %.2
}